Certificate:
    Data:
        Version: 3 (0x2)
        Serial Number: 4096 (0x1000)
    Signature Algorithm: md5WithRSAEncryption
        Issuer: C=US, ST=Utah, L=Salt Lake City, O=UofU
        Validity
            Not Before: Mar 20 18:38:03 2023 GMT
            Not After : Mar 19 18:38:03 2024 GMT
        Subject: C=US, ST=Utah, O=UofU, CN=server
        Subject Public Key Info:
            Public Key Algorithm: rsaEncryption
                Public-Key: (4096 bit)
                Modulus:
                    00:b4:40:9d:1c:55:94:26:3d:f1:53:09:86:d0:bf:
                    00:a8:c4:27:de:58:9b:3f:81:b7:e1:32:98:9b:40:
                    99:2e:0f:8f:21:03:e3:a2:b1:54:c3:82:60:e0:cb:
                    d8:44:dd:3a:5b:b0:39:98:68:d9:81:ed:0a:1b:99:
                    c2:a5:f0:e5:fc:5b:c8:8e:f7:12:c2:14:72:5e:d1:
                    c2:7d:79:b7:43:d8:01:82:56:73:f9:0e:a1:24:a7:
                    57:fc:f4:50:d5:e3:0a:0b:f0:27:0d:25:14:cb:cd:
                    f7:79:73:e1:9f:5f:ea:04:22:23:d6:9c:8c:f1:29:
                    d8:15:16:15:92:b7:d9:28:67:d9:27:6c:6b:35:c7:
                    42:60:4e:52:12:a4:11:f3:f7:57:b1:a6:50:91:3c:
                    22:c9:1b:69:a2:5f:81:bf:54:f7:26:89:3b:9f:67:
                    c2:8b:eb:73:79:10:31:ad:bc:7a:c5:64:bc:44:20:
                    4e:4e:05:e9:af:34:8b:3a:54:78:f7:cc:10:76:a3:
                    38:2a:70:09:a5:5d:30:57:12:fb:67:25:9a:a4:bc:
                    b2:64:99:dd:f8:40:e2:35:0b:7f:b8:82:6c:ea:e9:
                    33:bf:26:3f:63:f0:62:8a:0f:71:df:52:bb:3f:c7:
                    72:35:82:21:30:38:dc:b8:4a:49:3a:90:9c:ac:0c:
                    9b:3d:f1:16:90:cf:ca:01:f6:f4:f1:d9:6d:fb:8c:
                    7c:ca:ea:16:0c:9b:e3:60:63:b0:0a:14:ba:cd:20:
                    e1:28:7d:57:9b:67:c1:12:3e:33:3c:46:a6:07:b5:
                    3b:dd:b7:16:a4:47:9d:70:46:cb:a1:bb:90:9e:76:
                    36:99:dd:97:74:2b:14:59:0c:85:0d:9b:b4:4e:c6:
                    5b:1b:b7:9b:b2:45:f2:af:d9:18:ca:85:ee:af:49:
                    6e:05:a7:34:dd:25:fb:45:76:28:7d:bd:0d:e3:c4:
                    5d:20:4c:d0:eb:41:cd:8f:5e:04:21:8d:9f:2b:c0:
                    05:5b:cf:48:84:18:5d:ee:7e:ca:fa:66:24:12:8e:
                    e0:21:69:53:65:f1:9b:2f:26:a8:1f:9b:8b:34:a8:
                    28:f3:7d:93:d4:29:c4:de:85:46:bf:84:57:34:08:
                    77:4f:32:57:63:1f:8b:12:1b:17:3a:06:61:a0:5b:
                    3e:47:d4:f7:91:e1:f6:de:1f:49:29:2a:f9:85:c3:
                    93:0b:36:7d:e0:ae:b2:56:49:cf:3a:51:ea:a9:07:
                    a8:85:fd:1b:8d:f5:45:70:58:8c:bf:cc:5f:a0:69:
                    0d:e5:f5:eb:b7:77:41:48:8d:e7:d3:49:91:15:40:
                    5e:55:57:f0:6e:c3:af:8c:09:51:19:e1:0d:8f:db:
                    bf:b2:09
                Exponent: 65537 (0x10001)
        X509v3 extensions:
            X509v3 Basic Constraints: 
                CA:FALSE
            Netscape Comment: 
                OpenSSL Generated Certificate
            X509v3 Subject Key Identifier: 
                21:13:B5:A6:0C:EE:CE:31:6F:40:25:29:37:FD:A7:A1:95:A9:DD:B2
            X509v3 Authority Key Identifier: 
                DirName:/C=US/ST=Utah/L=Salt Lake City/O=UofU
                serial:DC:04:44:1D:21:15:F0:8A

    Signature Algorithm: md5WithRSAEncryption
         40:89:d4:48:d3:17:ae:e9:cf:9a:23:17:f2:99:4a:a1:ce:1d:
         62:d4:87:83:49:4d:cf:3c:21:b3:29:e5:e2:27:65:72:73:06:
         a8:46:61:a4:a6:31:68:8c:8e:2c:92:83:f3:d0:57:2a:d8:85:
         8c:78:d3:c6:25:d2:40:02:87:e3:d6:24:11:6e:d0:00:cb:a8:
         fc:f7:57:b9:5c:32:2c:42:a7:fd:01:5e:8c:c3:6d:1f:ed:96:
         9d:ac:06:44:0b:9b:6a:8a:70:8a:7e:8a:23:5b:55:cf:7c:66:
         3a:72:1a:13:57:b1:8f:1a:c6:35:2d:76:4f:76:bc:e2:a5:6b:
         30:92:28:60:0a:41:5e:ec:7e:81:78:c6:cb:a4:b5:e8:4a:13:
         4c:81:09:33:df:ec:fe:ef:d7:92:2a:21:b4:8e:a9:6f:11:c3:
         15:c7:ad:36:c6:bb:80:55:90:65:79:79:d1:24:f5:fc:43:ca:
         51:ea:af:30:c3:e3:ab:2c:cc:d9:20:a6:6d:64:cb:b1:88:da:
         c7:56:04:f0:46:f4:aa:a7:cf:45:90:84:f4:1f:ec:c0:a0:b1:
         f6:2e:5a:71:cf:fb:b3:32:81:64:20:d5:10:3e:43:00:24:b8:
         a5:f6:05:ea:2f:a9:2f:f6:84:fd:cd:3c:58:50:f8:d9:df:99:
         83:e5:c9:ac:ec:ac:de:7e:5d:b9:1b:50:31:b8:97:ed:dc:e9:
         3c:24:d3:23:31:81:56:78:4e:2e:cd:28:6f:10:68:6c:d1:2b:
         56:a7:95:ab:c5:1e:a7:00:6e:a8:96:02:eb:48:b7:2d:ce:55:
         6c:98:b7:c5:fd:da:38:bc:09:91:ab:cb:4d:e8:83:8f:0c:18:
         6e:11:49:3e:9d:fc:35:15:ba:ae:b1:b7:72:d3:c5:2d:c2:15:
         49:ea:98:48:60:04:02:c1:b4:e2:0a:2a:bd:30:50:64:e1:16:
         df:8b:d6:e1:65:0c:dc:e0:fd:b5:99:b3:68:9c:e2:19:90:e4:
         55:cd:02:3b:04:28:b5:f8:4f:35:ab:97:01:09:e3:66:29:f5:
         8b:1b:3e:85:2f:c6:0a:7b:64:1c:bf:8c:e5:de:3a:0a:41:f7:
         b4:de:a1:9f:48:39:b9:ef:3a:fd:91:e4:67:7d:da:4c:61:3b:
         57:9f:8d:fa:e8:68:02:e2:a1:84:58:21:0c:c6:37:b2:1f:5d:
         c6:16:d9:09:c3:fb:93:d6:94:c4:e8:97:96:64:e6:7d:a9:04:
         7b:b5:e0:64:87:fe:88:01:08:d7:61:b9:d2:8d:2c:90:a1:1f:
         3b:fb:83:7c:ca:00:6f:9c:dc:36:88:ac:58:25:eb:a8:03:03:
         4c:51:d9:40:04:25:86:7b
-----BEGIN CERTIFICATE-----
MIIFuDCCA6CgAwIBAgICEAAwDQYJKoZIhvcNAQEEBQAwRDELMAkGA1UEBhMCVVMx
DTALBgNVBAgMBFV0YWgxFzAVBgNVBAcMDlNhbHQgTGFrZSBDaXR5MQ0wCwYDVQQK
DARVb2ZVMB4XDTIzMDMyMDE4MzgwM1oXDTI0MDMxOTE4MzgwM1owPDELMAkGA1UE
BhMCVVMxDTALBgNVBAgMBFV0YWgxDTALBgNVBAoMBFVvZlUxDzANBgNVBAMMBnNl
cnZlcjCCAiIwDQYJKoZIhvcNAQEBBQADggIPADCCAgoCggIBALRAnRxVlCY98VMJ
htC/AKjEJ95Ymz+Bt+EymJtAmS4PjyED46KxVMOCYODL2ETdOluwOZho2YHtChuZ
wqXw5fxbyI73EsIUcl7Rwn15t0PYAYJWc/kOoSSnV/z0UNXjCgvwJw0lFMvN93lz
4Z9f6gQiI9acjPEp2BUWFZK32Shn2SdsazXHQmBOUhKkEfP3V7GmUJE8IskbaaJf
gb9U9yaJO59nwovrc3kQMa28esVkvEQgTk4F6a80izpUePfMEHajOCpwCaVdMFcS
+2clmqS8smSZ3fhA4jULf7iCbOrpM78mP2PwYooPcd9Suz/HcjWCITA43LhKSTqQ
nKwMmz3xFpDPygH29PHZbfuMfMrqFgyb42BjsAoUus0g4Sh9V5tnwRI+MzxGpge1
O923FqRHnXBGy6G7kJ52Npndl3QrFFkMhQ2btE7GWxu3m7JF8q/ZGMqF7q9JbgWn
NN0l+0V2KH29DePEXSBM0OtBzY9eBCGNnyvABVvPSIQYXe5+yvpmJBKO4CFpU2Xx
my8mqB+bizSoKPN9k9QpxN6FRr+EVzQId08yV2MfixIbFzoGYaBbPkfU95Hh9t4f
SSkq+YXDkws2feCuslZJzzpR6qkHqIX9G431RXBYjL/MX6BpDeX167d3QUiN59NJ
kRVAXlVX8G7Dr4wJURnhDY/bv7IJAgMBAAGjgbswgbgwCQYDVR0TBAIwADAsBglg
hkgBhvhCAQ0EHxYdT3BlblNTTCBHZW5lcmF0ZWQgQ2VydGlmaWNhdGUwHQYDVR0O
BBYEFCETtaYM7s4xb0AlKTf9p6GVqd2yMF4GA1UdIwRXMFWhSKRGMEQxCzAJBgNV
BAYTAlVTMQ0wCwYDVQQIDARVdGFoMRcwFQYDVQQHDA5TYWx0IExha2UgQ2l0eTEN
MAsGA1UECgwEVW9mVYIJANwERB0hFfCKMA0GCSqGSIb3DQEBBAUAA4ICAQBAidRI
0xeu6c+aIxfymUqhzh1i1IeDSU3PPCGzKeXiJ2VycwaoRmGkpjFojI4skoPz0Fcq
2IWMeNPGJdJAAofj1iQRbtAAy6j891e5XDIsQqf9AV6Mw20f7ZadrAZEC5tqinCK
foojW1XPfGY6choTV7GPGsY1LXZPdrzipWswkihgCkFe7H6BeMbLpLXoShNMgQkz
3+z+79eSKiG0jqlvEcMVx602xruAVZBleXnRJPX8Q8pR6q8ww+OrLMzZIKZtZMux
iNrHVgTwRvSqp89FkIT0H+zAoLH2Llpxz/uzMoFkINUQPkMAJLil9gXqL6kv9oT9
zTxYUPjZ35mD5cms7Kzefl25G1AxuJft3Ok8JNMjMYFWeE4uzShvEGhs0StWp5Wr
xR6nAG6olgLrSLctzlVsmLfF/do4vAmRq8tN6IOPDBhuEUk+nfw1Fbqusbdy08Ut
whVJ6phIYAQCwbTiCiq9MFBk4Rbfi9bhZQzc4P21mbNonOIZkORVzQI7BCi1+E81
q5cBCeNmKfWLGz6FL8YKe2Qcv4zl3joKQfe03qGfSDm57zr9keRnfdpMYTtXn436
6GgC4qGEWCEMxjeyH13GFtkJw/uT1pTE6JeWZOZ9qQR7teBkh/6IAQjXYbnSjSyQ
oR87+4N8ygBvnNw2iKxYJeuoAwNMUdlABCWGew==
-----END CERTIFICATE-----
