Certificate:
    Data:
        Version: 3 (0x2)
        Serial Number: 4097 (0x1001)
    Signature Algorithm: md5WithRSAEncryption
        Issuer: C=US, ST=Utah, L=Salt Lake City, O=UofU
        Validity
            Not Before: Mar 20 18:43:16 2023 GMT
            Not After : Mar 19 18:43:16 2024 GMT
        Subject: C=US, ST=Utah, O=UofU, CN=client
        Subject Public Key Info:
            Public Key Algorithm: rsaEncryption
                Public-Key: (4096 bit)
                Modulus:
                    00:b8:ea:d5:a7:8b:57:c5:5c:5c:b2:95:ec:7e:4f:
                    aa:a8:de:2c:63:8f:79:86:dd:c6:f5:14:30:30:21:
                    88:06:cc:ee:59:05:07:27:85:ec:6c:09:7a:1a:ba:
                    8e:e2:b4:4e:2f:b0:68:93:c5:d7:83:c6:9c:f4:0c:
                    03:37:c9:89:0c:c8:92:f9:92:08:10:f4:cc:28:b6:
                    6f:80:07:3b:e9:80:a6:41:8c:0e:2d:cf:84:c3:a8:
                    b1:6a:67:55:08:06:c4:07:e5:b6:45:8d:c6:73:52:
                    31:9d:41:7b:ad:a5:49:70:1d:64:d4:6a:73:20:0c:
                    56:c3:c7:61:a1:e8:9d:cd:d6:85:8f:88:5d:7c:9b:
                    4d:7c:4d:e6:19:e4:fa:a7:75:18:5d:03:55:38:a1:
                    0f:34:43:db:5b:63:6a:67:5d:92:27:16:1a:71:30:
                    33:ba:ce:c0:90:ab:b8:93:f6:c7:44:c0:b0:7b:1f:
                    1e:18:78:c4:ab:8c:28:17:06:14:ce:1f:fb:df:70:
                    4e:20:1e:31:da:1b:c1:9b:9c:24:d0:da:95:7c:8c:
                    51:cc:7c:22:d8:ff:24:d4:95:72:50:45:1e:14:68:
                    b7:8d:87:e0:2f:9e:6e:81:46:8f:e1:0a:0e:b8:a4:
                    60:4c:2b:7a:55:b9:17:67:b4:fa:35:0c:f4:17:40:
                    7a:d5:77:7b:4d:e5:64:dd:87:7a:68:4d:1b:5e:42:
                    f0:d8:dd:3e:9a:aa:28:ea:0d:3d:ec:76:ba:b0:18:
                    c6:99:e1:6a:57:6c:5f:31:b8:02:85:6f:a2:0c:04:
                    0f:88:e5:bc:1c:40:4f:0e:73:12:79:17:d4:2b:3b:
                    ca:e5:3f:4a:d5:bc:dd:70:78:12:c6:f9:72:24:9e:
                    dd:59:77:aa:0f:39:d4:2d:00:c4:0a:32:20:4b:f2:
                    fb:50:5c:96:08:a6:ed:b7:cd:fa:38:57:4a:27:d1:
                    5b:be:9a:78:b9:9d:ef:b3:ff:d0:e9:82:7c:64:24:
                    44:82:74:1b:4a:d3:a9:74:69:d1:23:4d:d3:28:2a:
                    c9:ac:b8:2b:f4:1c:b4:3d:ae:e8:69:8d:f3:1d:43:
                    7e:5a:fd:35:57:35:20:85:de:21:8b:b5:c2:c5:2e:
                    9f:27:b8:0b:ef:51:93:cb:21:3c:30:45:f0:d1:4c:
                    1b:b5:c3:be:fd:b6:27:cb:84:90:04:02:7a:2d:6e:
                    83:77:0f:bf:2f:34:57:be:66:fb:c0:12:af:a2:4e:
                    8a:49:36:86:3c:4c:d6:d5:4b:4d:db:63:b4:3a:97:
                    09:e3:6f:5e:a3:57:3e:16:06:e2:52:9e:d4:99:66:
                    0f:ab:2b:50:d0:87:3a:67:b8:08:72:44:fe:ab:61:
                    2e:6a:25
                Exponent: 65537 (0x10001)
        X509v3 extensions:
            X509v3 Basic Constraints: 
                CA:FALSE
            Netscape Comment: 
                OpenSSL Generated Certificate
            X509v3 Subject Key Identifier: 
                7A:77:AB:CB:BF:88:CC:8B:07:99:B4:5E:2B:88:AC:E8:B9:93:6D:F2
            X509v3 Authority Key Identifier: 
                DirName:/C=US/ST=Utah/L=Salt Lake City/O=UofU
                serial:DC:04:44:1D:21:15:F0:8A

    Signature Algorithm: md5WithRSAEncryption
         00:36:a2:1f:76:f0:a5:8e:f3:91:18:7f:ba:87:de:1b:36:a0:
         29:59:8a:d6:d0:20:a6:81:c6:b6:df:58:89:ab:bd:ce:81:47:
         3c:67:ba:93:df:63:10:a4:7a:2e:1a:cf:89:3e:60:65:b7:05:
         84:e5:78:f8:ea:08:f3:61:3a:c3:f5:3f:40:ba:a7:ac:e4:94:
         88:a4:7f:99:d5:38:d9:0a:7a:20:3e:3e:61:1e:8c:cf:7d:12:
         80:db:54:82:23:e4:8b:e1:de:3c:99:35:75:d6:b5:8f:e5:bf:
         2a:1f:58:e6:a5:54:fe:83:a0:14:38:0c:9d:64:05:14:d5:79:
         8d:e4:13:ce:3e:e6:69:11:5a:3d:c8:00:c2:83:dd:4f:e2:65:
         a9:67:99:3f:5f:5d:dd:0f:8a:6f:98:79:c6:2f:d8:a5:26:4c:
         3d:62:1f:85:5f:d0:61:36:4d:31:a8:2d:e1:40:d6:b9:12:38:
         b5:48:e1:fb:79:28:9a:a9:cf:1f:8f:b2:53:b6:76:a9:bd:83:
         1b:a1:c1:b8:35:d1:99:fb:46:88:63:0f:3a:81:b2:08:23:58:
         8f:1e:49:16:84:39:62:e0:ad:c9:9a:71:59:19:56:e3:05:25:
         ef:82:56:ef:4c:0b:07:a0:3a:15:ec:64:99:4f:6f:b3:94:76:
         8d:bf:26:63:e6:fe:07:6a:79:ce:f6:d8:8f:7a:90:46:a2:cf:
         d2:4f:c2:8b:78:62:58:12:89:dc:d2:71:77:c3:15:a1:b4:a3:
         78:35:00:5c:bc:5d:f6:17:84:b7:a9:49:aa:31:d4:c0:2b:da:
         c1:77:fe:aa:8b:5f:2f:42:76:66:f3:1c:bc:62:25:0d:2d:ad:
         27:ed:e3:8a:e7:89:5e:f9:1a:db:7d:7d:91:1a:bc:30:29:18:
         e8:f0:ed:d7:d7:ba:7d:64:76:0d:56:c1:a3:96:c8:1c:b2:e2:
         7c:9c:a3:ff:71:ae:a3:60:89:43:00:f4:a7:23:48:83:3a:01:
         98:e5:30:7e:f4:40:98:f7:1c:25:1e:71:e9:aa:d6:f6:cb:bd:
         3b:7e:b3:db:80:f1:20:0e:b8:be:b1:78:2c:26:f0:0f:21:ba:
         58:65:0f:ef:06:db:55:c0:9a:1c:21:c0:53:d6:ec:7b:f0:3b:
         d5:ef:28:44:34:65:4b:a4:19:91:db:1f:67:88:23:7d:16:eb:
         6b:96:e1:c3:5b:03:2b:31:4c:c0:2f:b4:94:a2:84:c6:2f:c6:
         e5:5a:d6:4a:06:84:3a:94:50:c4:b4:4d:06:90:c8:c0:5b:72:
         fb:47:db:bd:00:40:c0:67:1b:03:f8:4c:1f:5b:6a:cc:a9:c3:
         13:69:2c:ff:ff:56:ab:25
-----BEGIN CERTIFICATE-----
MIIFuDCCA6CgAwIBAgICEAEwDQYJKoZIhvcNAQEEBQAwRDELMAkGA1UEBhMCVVMx
DTALBgNVBAgMBFV0YWgxFzAVBgNVBAcMDlNhbHQgTGFrZSBDaXR5MQ0wCwYDVQQK
DARVb2ZVMB4XDTIzMDMyMDE4NDMxNloXDTI0MDMxOTE4NDMxNlowPDELMAkGA1UE
BhMCVVMxDTALBgNVBAgMBFV0YWgxDTALBgNVBAoMBFVvZlUxDzANBgNVBAMMBmNs
aWVudDCCAiIwDQYJKoZIhvcNAQEBBQADggIPADCCAgoCggIBALjq1aeLV8VcXLKV
7H5PqqjeLGOPeYbdxvUUMDAhiAbM7lkFByeF7GwJehq6juK0Ti+waJPF14PGnPQM
AzfJiQzIkvmSCBD0zCi2b4AHO+mApkGMDi3PhMOosWpnVQgGxAfltkWNxnNSMZ1B
e62lSXAdZNRqcyAMVsPHYaHonc3WhY+IXXybTXxN5hnk+qd1GF0DVTihDzRD21tj
amddkicWGnEwM7rOwJCruJP2x0TAsHsfHhh4xKuMKBcGFM4f+99wTiAeMdobwZuc
JNDalXyMUcx8Itj/JNSVclBFHhRot42H4C+eboFGj+EKDrikYEwrelW5F2e0+jUM
9BdAetV3e03lZN2HemhNG15C8NjdPpqqKOoNPex2urAYxpnhaldsXzG4AoVvogwE
D4jlvBxATw5zEnkX1Cs7yuU/StW83XB4Esb5ciSe3Vl3qg851C0AxAoyIEvy+1Bc
lgim7bfN+jhXSifRW76aeLmd77P/0OmCfGQkRIJ0G0rTqXRp0SNN0ygqyay4K/Qc
tD2u6GmN8x1Dflr9NVc1IIXeIYu1wsUunye4C+9Rk8shPDBF8NFMG7XDvv22J8uE
kAQCei1ug3cPvy80V75m+8ASr6JOikk2hjxM1tVLTdtjtDqXCeNvXqNXPhYG4lKe
1JlmD6srUNCHOme4CHJE/qthLmolAgMBAAGjgbswgbgwCQYDVR0TBAIwADAsBglg
hkgBhvhCAQ0EHxYdT3BlblNTTCBHZW5lcmF0ZWQgQ2VydGlmaWNhdGUwHQYDVR0O
BBYEFHp3q8u/iMyLB5m0XiuIrOi5k23yMF4GA1UdIwRXMFWhSKRGMEQxCzAJBgNV
BAYTAlVTMQ0wCwYDVQQIDARVdGFoMRcwFQYDVQQHDA5TYWx0IExha2UgQ2l0eTEN
MAsGA1UECgwEVW9mVYIJANwERB0hFfCKMA0GCSqGSIb3DQEBBAUAA4ICAQAANqIf
dvCljvORGH+6h94bNqApWYrW0CCmgca231iJq73OgUc8Z7qT32MQpHouGs+JPmBl
twWE5Xj46gjzYTrD9T9Auqes5JSIpH+Z1TjZCnogPj5hHozPfRKA21SCI+SL4d48
mTV11rWP5b8qH1jmpVT+g6AUOAydZAUU1XmN5BPOPuZpEVo9yADCg91P4mWpZ5k/
X13dD4pvmHnGL9ilJkw9Yh+FX9BhNk0xqC3hQNa5Eji1SOH7eSiaqc8fj7JTtnap
vYMbocG4NdGZ+0aIYw86gbIII1iPHkkWhDli4K3JmnFZGVbjBSXvglbvTAsHoDoV
7GSZT2+zlHaNvyZj5v4HannO9tiPepBGos/ST8KLeGJYEonc0nF3wxWhtKN4NQBc
vF32F4S3qUmqMdTAK9rBd/6qi18vQnZm8xy8YiUNLa0n7eOK54le+RrbfX2RGrww
KRjo8O3X17p9ZHYNVsGjlsgcsuJ8nKP/ca6jYIlDAPSnI0iDOgGY5TB+9ECY9xwl
HnHpqtb2y707frPbgPEgDri+sXgsJvAPIbpYZQ/vBttVwJocIcBT1ux78DvV7yhE
NGVLpBmR2x9niCN9FutrluHDWwMrMUzAL7SUooTGL8blWtZKBoQ6lFDEtE0GkMjA
W3L7R9u9AEDAZxsD+EwfW2rMqcMTaSz//1arJQ==
-----END CERTIFICATE-----
